; ModuleID = 'source-C-CXX/43/1.c'
source_filename = "source-C-CXX/43/1.c"
target datalayout = "e-m:e-p270:32:32-p271:32:32-p272:64:64-i64:64-f80:128-n8:16:32:64-S128"
target triple = "x86_64-pc-linux-gnu"

@.str = private unnamed_addr constant [3 x i8] c"%d\00", align 1
@.str.1 = private unnamed_addr constant [4 x i8] c"%d\0A\00", align 1

; Function Attrs: mustprogress nofree nosync nounwind readnone sspstrong uwtable willreturn
define dso_local i32 @reverse(i32 %0) local_unnamed_addr #0 {
  %2 = tail call i32 @llvm.abs.i32(i32 %0, i1 true)
  %3 = add nsw i32 %2, -10
  %4 = icmp ult i32 %3, 90
  %5 = select i1 %4, i32 2, i32 1
  %6 = add nsw i32 %2, -100
  %7 = icmp ult i32 %6, 900
  %8 = select i1 %7, i32 3, i32 %5
  %9 = add nsw i32 %2, -1000
  %10 = icmp ult i32 %9, 9000
  %11 = select i1 %10, i32 4, i32 %8
  %12 = add nsw i32 %2, -10000
  %13 = icmp ult i32 %12, 90000
  %14 = select i1 %13, i32 5, i32 %11
  %15 = add nsw i32 %2, -100000
  %16 = icmp ult i32 %15, 900000
  %17 = select i1 %16, i32 6, i32 %14
  %18 = urem i32 %2, 10
  %19 = sub nsw i32 %2, %18
  %20 = srem i32 %19, 100
  %21 = trunc i32 %20 to i8
  %22 = sdiv i8 %21, 10
  %23 = zext i8 %22 to i32
  %24 = mul nuw nsw i32 %23, 10
  %25 = sub nsw i32 %19, %24
  %26 = srem i32 %25, 1000
  %27 = trunc i32 %26 to i16
  %28 = sdiv i16 %27, 100
  %29 = zext i16 %28 to i32
  %30 = mul nuw nsw i32 %29, 100
  %31 = sub nsw i32 %25, %30
  %32 = srem i32 %31, 10000
  %33 = trunc i32 %32 to i16
  %34 = sdiv i16 %33, 1000
  %35 = zext i16 %34 to i32
  %36 = mul nsw i32 %35, -1000
  %37 = add nsw i32 %36, %31
  %38 = srem i32 %37, 100000
  %39 = sdiv i32 %38, 10000
  switch i32 %17, label %77 [
    i32 6, label %62
    i32 2, label %40
    i32 3, label %43
    i32 4, label %47
    i32 5, label %54
  ]

40:                                               ; preds = %1
  %41 = mul nuw nsw i32 %18, 10
  %42 = add nuw nsw i32 %41, %23
  br label %77

43:                                               ; preds = %1
  %44 = mul nuw nsw i32 %18, 100
  %45 = add nuw nsw i32 %24, %44
  %46 = add nuw nsw i32 %45, %29
  br label %77

47:                                               ; preds = %1
  %48 = mul nuw nsw i32 %29, 10
  %49 = mul nuw nsw i32 %23, 100
  %50 = mul nuw nsw i32 %18, 1000
  %51 = add nuw nsw i32 %49, %50
  %52 = add nuw nsw i32 %51, %48
  %53 = add nuw nsw i32 %52, %35
  br label %77

54:                                               ; preds = %1
  %55 = mul nuw nsw i32 %35, 10
  %56 = mul nuw nsw i32 %23, 1000
  %57 = mul nuw nsw i32 %18, 10000
  %58 = add nuw nsw i32 %56, %57
  %59 = add nuw nsw i32 %58, %30
  %60 = add nuw nsw i32 %59, %55
  %61 = add nuw nsw i32 %60, %39
  br label %77

62:                                               ; preds = %1
  %63 = mul nsw i32 %39, -10000
  %64 = add nsw i32 %63, %37
  %65 = srem i32 %64, 1000000
  %66 = sdiv i32 %65, 100000
  %67 = mul nuw nsw i32 %39, 10
  %68 = mul nuw nsw i32 %35, 100
  %69 = mul nuw nsw i32 %29, 1000
  %70 = mul nuw nsw i32 %23, 10000
  %71 = mul nuw nsw i32 %18, 100000
  %72 = add nuw nsw i32 %70, %71
  %73 = add nuw nsw i32 %72, %69
  %74 = add nuw nsw i32 %73, %68
  %75 = add nuw nsw i32 %74, %67
  %76 = add nuw nsw i32 %75, %66
  br label %77

77:                                               ; preds = %1, %62, %54, %47, %43, %40
  %78 = phi i32 [ %76, %62 ], [ %61, %54 ], [ %53, %47 ], [ %46, %43 ], [ %42, %40 ], [ %18, %1 ]
  ret i32 %78
}

; Function Attrs: argmemonly mustprogress nofree nosync nounwind willreturn
declare void @llvm.lifetime.start.p0i8(i64 immarg, i8* nocapture) #1

; Function Attrs: argmemonly mustprogress nofree nosync nounwind willreturn
declare void @llvm.lifetime.end.p0i8(i64 immarg, i8* nocapture) #1

; Function Attrs: nofree nounwind sspstrong uwtable
define dso_local void @main() local_unnamed_addr #2 {
  %1 = alloca [6 x i32], align 16
  %2 = bitcast [6 x i32]* %1 to i8*
  call void @llvm.lifetime.start.p0i8(i64 24, i8* nonnull %2) #5
  %3 = getelementptr inbounds [6 x i32], [6 x i32]* %1, i64 0, i64 0
  %4 = call i32 (i8*, ...) @__isoc99_scanf(i8* getelementptr inbounds ([3 x i8], [3 x i8]* @.str, i64 0, i64 0), i32* nonnull %3)
  %5 = getelementptr inbounds [6 x i32], [6 x i32]* %1, i64 0, i64 1
  %6 = call i32 (i8*, ...) @__isoc99_scanf(i8* getelementptr inbounds ([3 x i8], [3 x i8]* @.str, i64 0, i64 0), i32* nonnull %5)
  %7 = getelementptr inbounds [6 x i32], [6 x i32]* %1, i64 0, i64 2
  %8 = call i32 (i8*, ...) @__isoc99_scanf(i8* getelementptr inbounds ([3 x i8], [3 x i8]* @.str, i64 0, i64 0), i32* nonnull %7)
  %9 = getelementptr inbounds [6 x i32], [6 x i32]* %1, i64 0, i64 3
  %10 = call i32 (i8*, ...) @__isoc99_scanf(i8* getelementptr inbounds ([3 x i8], [3 x i8]* @.str, i64 0, i64 0), i32* nonnull %9)
  %11 = getelementptr inbounds [6 x i32], [6 x i32]* %1, i64 0, i64 4
  %12 = call i32 (i8*, ...) @__isoc99_scanf(i8* getelementptr inbounds ([3 x i8], [3 x i8]* @.str, i64 0, i64 0), i32* nonnull %11)
  %13 = getelementptr inbounds [6 x i32], [6 x i32]* %1, i64 0, i64 5
  %14 = call i32 (i8*, ...) @__isoc99_scanf(i8* getelementptr inbounds ([3 x i8], [3 x i8]* @.str, i64 0, i64 0), i32* nonnull %13)
  %15 = load i32, i32* %3, align 16, !tbaa !5
  %16 = icmp sgt i32 %15, -1
  %17 = call i32 @reverse(i32 %15)
  %18 = sub nsw i32 0, %17
  %19 = select i1 %16, i32 %17, i32 %18
  %20 = call i32 (i8*, ...) @printf(i8* nonnull dereferenceable(1) getelementptr inbounds ([4 x i8], [4 x i8]* @.str.1, i64 0, i64 0), i32 %19)
  %21 = load i32, i32* %5, align 4, !tbaa !5
  %22 = icmp sgt i32 %21, -1
  %23 = call i32 @reverse(i32 %21)
  %24 = sub nsw i32 0, %23
  %25 = select i1 %22, i32 %23, i32 %24
  %26 = call i32 (i8*, ...) @printf(i8* nonnull dereferenceable(1) getelementptr inbounds ([4 x i8], [4 x i8]* @.str.1, i64 0, i64 0), i32 %25)
  %27 = load i32, i32* %7, align 8, !tbaa !5
  %28 = icmp sgt i32 %27, -1
  %29 = call i32 @reverse(i32 %27)
  %30 = sub nsw i32 0, %29
  %31 = select i1 %28, i32 %29, i32 %30
  %32 = call i32 (i8*, ...) @printf(i8* nonnull dereferenceable(1) getelementptr inbounds ([4 x i8], [4 x i8]* @.str.1, i64 0, i64 0), i32 %31)
  %33 = load i32, i32* %9, align 4, !tbaa !5
  %34 = icmp sgt i32 %33, -1
  %35 = call i32 @reverse(i32 %33)
  %36 = sub nsw i32 0, %35
  %37 = select i1 %34, i32 %35, i32 %36
  %38 = call i32 (i8*, ...) @printf(i8* nonnull dereferenceable(1) getelementptr inbounds ([4 x i8], [4 x i8]* @.str.1, i64 0, i64 0), i32 %37)
  %39 = load i32, i32* %11, align 16, !tbaa !5
  %40 = icmp sgt i32 %39, -1
  %41 = call i32 @reverse(i32 %39)
  %42 = sub nsw i32 0, %41
  %43 = select i1 %40, i32 %41, i32 %42
  %44 = call i32 (i8*, ...) @printf(i8* nonnull dereferenceable(1) getelementptr inbounds ([4 x i8], [4 x i8]* @.str.1, i64 0, i64 0), i32 %43)
  %45 = load i32, i32* %13, align 4, !tbaa !5
  %46 = icmp sgt i32 %45, -1
  %47 = call i32 @reverse(i32 %45)
  %48 = sub nsw i32 0, %47
  %49 = select i1 %46, i32 %47, i32 %48
  %50 = call i32 (i8*, ...) @printf(i8* nonnull dereferenceable(1) getelementptr inbounds ([4 x i8], [4 x i8]* @.str.1, i64 0, i64 0), i32 %49)
  call void @llvm.lifetime.end.p0i8(i64 24, i8* nonnull %2) #5
  ret void
}

; Function Attrs: nofree nounwind
declare noundef i32 @__isoc99_scanf(i8* nocapture noundef readonly, ...) local_unnamed_addr #3

; Function Attrs: nofree nounwind
declare noundef i32 @printf(i8* nocapture noundef readonly, ...) local_unnamed_addr #3

; Function Attrs: nofree nosync nounwind readnone speculatable willreturn
declare i32 @llvm.abs.i32(i32, i1 immarg) #4


!llvm.module.flags = !{!0, !1, !2, !3}
!llvm.ident = !{!4}

!0 = !{i32 1, !"wchar_size", i32 4}
!1 = !{i32 7, !"PIC Level", i32 2}
!2 = !{i32 7, !"PIE Level", i32 2}
!3 = !{i32 7, !"uwtable", i32 1}
!4 = !{!"clang version 13.0.0"}
!5 = !{!6, !6, i64 0}
!6 = !{!"int", !7, i64 0}
!7 = !{!"omnipotent char", !8, i64 0}
!8 = !{!"Simple C/C++ TBAA"}
